target datalayout = "e-m:e-p270:32:32-p271:32:32-p272:64:64-i64:64-i128:128-f80:128-n8:16:32:64-S128"
target triple = "x86_64-pc-linux-gnu"

%struct.SRBRoot = type { ptr, ptr, i32, i32, i8, i8, i8, ptr, ptr, i32, i32, i32, i32, i32, %"class.icu_77::UnicodeString", i32, ptr, i32, i32, i32, ptr }
%"class.icu_77::UnicodeString" = type { %"class.icu_77::Replaceable", %"union.icu_77::UnicodeString::StackBufferOrFields" }
%"class.icu_77::Replaceable" = type { %"class.icu_77::UObject" }
%"class.icu_77::UObject" = type { ptr }
%"union.icu_77::UnicodeString::StackBufferOrFields" = type { %struct.anon.0, [32 x i8] }
%struct.anon.0 = type { i16, i32, i32, ptr }

; Function Attrs: mustprogress nounwind uwtable
define dso_local void @_ZN7SRBRootD2Ev(ptr noundef nonnull align 8 dereferenceable(176) %0) unnamed_addr #4 align 2 personality ptr @__gxx_personality_v0 {
  %2 = alloca ptr, align 8
  store ptr %0, ptr %2, align 8, !tbaa !39
  %3 = load ptr, ptr %2, align 8
  %4 = getelementptr inbounds nuw %struct.SRBRoot, ptr %3, i32 0, i32 0
  %5 = load ptr, ptr %4, align 8, !tbaa !144
  %6 = icmp eq ptr %5, null
  br i1 %6, label %11, label %7

7:                                                ; preds = %1
  %8 = load ptr, ptr %5, align 8, !tbaa !26
  %9 = getelementptr inbounds ptr, ptr %8, i64 1
  %10 = load ptr, ptr %9, align 8
  call void %10(ptr noundef nonnull align 8 dereferenceable(56) %5) #3
  br label %11

11:                                               ; preds = %7, %1
  %12 = getelementptr inbounds nuw %struct.SRBRoot, ptr %3, i32 0, i32 1
  %13 = load ptr, ptr %12, align 8, !tbaa !147
  invoke void @uprv_free_77(ptr noundef %13)
          to label %14 unwind label %22

14:                                               ; preds = %11
  %15 = getelementptr inbounds nuw %struct.SRBRoot, ptr %3, i32 0, i32 7
  %16 = load ptr, ptr %15, align 8, !tbaa !64
  invoke void @uprv_free_77(ptr noundef %16)
          to label %17 unwind label %22

17:                                               ; preds = %14
  %18 = getelementptr inbounds nuw %struct.SRBRoot, ptr %3, i32 0, i32 8
  %19 = load ptr, ptr %18, align 8, !tbaa !117
  invoke void @uprv_free_77(ptr noundef %19)
          to label %20 unwind label %22

20:                                               ; preds = %17
  %21 = getelementptr inbounds nuw %struct.SRBRoot, ptr %3, i32 0, i32 14
  call void @_ZN6icu_7713UnicodeStringD1Ev(ptr noundef nonnull align 8 dereferenceable(64) %21) #3
  ret void

22:                                               ; preds = %17, %14, %11
  %23 = landingpad { ptr, i32 }
          catch ptr null
  %24 = extractvalue { ptr, i32 } %23, 0
  call void @__clang_call_terminate(ptr %24) #21
  unreachable
}