; Function Attrs: mustprogress nounwind uwtable
define dso_local void @_ZN7SRBRootD2Ev(ptr noundef nonnull align 8 dereferenceable(176) %0) unnamed_addr #3 align 2 personality ptr @__gxx_personality_v0 {
  %2 = load ptr, ptr %0, align 8, !tbaa !105
  %3 = icmp eq ptr %2, null
  br i1 %3, label %8, label %4

4:                                                ; preds = %1
  %5 = load ptr, ptr %2, align 8, !tbaa !9
  %6 = getelementptr inbounds nuw i8, ptr %5, i64 8
  %7 = load ptr, ptr %6, align 8
  tail call void %7(ptr noundef nonnull align 8 dereferenceable(56) %2) #34
  br label %8

8:                                                ; preds = %4, %1
  %9 = getelementptr inbounds nuw i8, ptr %0, i64 8
  %10 = load ptr, ptr %9, align 8, !tbaa !108
  invoke void @uprv_free_77(ptr noundef %10)
          to label %11 unwind label %19

11:                                               ; preds = %8
  %12 = getelementptr inbounds nuw i8, ptr %0, i64 32
  %13 = load ptr, ptr %12, align 8, !tbaa !34
  invoke void @uprv_free_77(ptr noundef %13)
          to label %14 unwind label %19

14:                                               ; preds = %11
  %15 = getelementptr inbounds nuw i8, ptr %0, i64 40
  %16 = load ptr, ptr %15, align 8, !tbaa !77
  invoke void @uprv_free_77(ptr noundef %16)
          to label %17 unwind label %19

17:                                               ; preds = %14
  %18 = getelementptr inbounds nuw i8, ptr %0, i64 72
  tail call void @_ZN6icu_7713UnicodeStringD1Ev(ptr noundef nonnull align 8 dereferenceable(64) %18) #34
  ret void

19:                                               ; preds = %14, %11, %8
  %20 = landingpad { ptr, i32 }
          catch ptr null
  %21 = extractvalue { ptr, i32 } %20, 0
  tail call void @__clang_call_terminate(ptr %21) #31
  unreachable
}